target datalayout = "e-m:e-p270:32:32-p271:32:32-p272:64:64-i64:64-i128:128-f80:128-n8:16:32:64-S128"
target triple = "x86_64-pc-linux-gnu"

%struct.radix_process_st = type { i64, i64, i64, ptr, ptr, ptr, %struct.OSSL_TIME, ptr, i32, i32 }
%struct.OSSL_TIME = type { i64 }
%struct.terp_config_st = type { ptr, ptr, ptr, ptr, ptr, %struct.OSSL_TIME }
%struct.terp_st = type { %struct.terp_config_st, ptr, ptr, %struct.srdr_st, ptr, ptr, ptr, ptr, %struct.func_ctx_st, i64, i32, %struct.OSSL_TIME, %struct.OSSL_TIME }
%struct.srdr_st = type { ptr, ptr, ptr, ptr }
%struct.func_ctx_st = type { ptr, i32, i32 }
%struct.radix_thread_st = type { ptr, ptr, ptr, i64, i64, [8 x ptr], [8 x ptr], ptr, ptr, ptr, i32, i32, i64 }
%struct.radix_obj_st = type { ptr, ptr, i8 }

@.str.42 = private unnamed_addr constant [29 x i8] c"../openssl/test/radix/terp.c\00", align 1
@.str.44 = private unnamed_addr constant [33 x i8] c"../openssl/test/radix/quic_ops.c\00", align 1
@.str.45 = private unnamed_addr constant [62 x i8] c"TERP_stk_pop(((fctx->terp)), &(((flags))), sizeof(((flags))))\00", align 1
@radix_process = internal global %struct.radix_process_st zeroinitializer, align 8
@.str.55 = private unnamed_addr constant [30 x i8] c"terp->stk_end - terp->stk_cur\00", align 1
@.str.56 = private unnamed_addr constant [8 x i8] c"buf_len\00", align 1
@.str.74 = private unnamed_addr constant [38 x i8] c"../openssl/test/radix/quic_bindings.c\00", align 1
@.str.86 = private unnamed_addr constant [10 x i8] c"NUM_SLOTS\00", align 1
@radix_thread = internal global i32 0, align 4
@.str.93 = private unnamed_addr constant [4 x i8] c"idx\00", align 1
@.str.94 = private unnamed_addr constant [24 x i8] c"*p_ssl = RT()->ssl[idx]\00", align 1
@.str.172 = private unnamed_addr constant [70 x i8] c"TERP_stk_pop(((fctx->terp)), &(((do_accept))), sizeof(((do_accept))))\00", align 1
@.str.173 = private unnamed_addr constant [68 x i8] c"TERP_stk_pop((fctx->terp), &((stream_name)), sizeof((stream_name)))\00", align 1
@.str.174 = private unnamed_addr constant [38 x i8] c"expect_slot_ssl(fctx, (0), &((conn)))\00", align 1
@.str.175 = private unnamed_addr constant [41 x i8] c"RADIX_PROCESS_get_obj(RP(), stream_name)\00", align 1
@.str.176 = private unnamed_addr constant [7 x i8] c"stream\00", align 1
@.str.177 = private unnamed_addr constant [49 x i8] c"RADIX_PROCESS_set_ssl(RP(), stream_name, stream)\00", align 1

; Function Attrs: inlinehint nounwind uwtable
define internal ptr @lh_RADIX_OBJ_retrieve(ptr noundef %0, ptr noundef %1) #5 {
  %3 = alloca ptr, align 8
  %4 = alloca ptr, align 8
  store ptr %0, ptr %3, align 8, !tbaa !89
  store ptr %1, ptr %4, align 8, !tbaa !51
  %5 = load ptr, ptr %3, align 8, !tbaa !89
  %6 = load ptr, ptr %4, align 8, !tbaa !51
  %7 = call ptr @OPENSSL_LH_retrieve(ptr noundef %5, ptr noundef %6)
  ret ptr %7
}

; Function Attrs: nounwind uwtable
define internal ptr @radix_get_thread() #0 {
  %1 = call ptr @CRYPTO_THREAD_get_local(ptr noundef @radix_thread)
  ret ptr %1
}

; Function Attrs: nounwind uwtable
define internal ptr @RADIX_PROCESS_get_obj(ptr noundef %0, ptr noundef %1) #0 {
  %3 = alloca ptr, align 8
  %4 = alloca ptr, align 8
  %5 = alloca %struct.radix_obj_st, align 8
  store ptr %0, ptr %3, align 8, !tbaa !83
  store ptr %1, ptr %4, align 8, !tbaa !4
  call void @llvm.lifetime.start.p0(i64 24, ptr %5) #9
  %6 = load ptr, ptr %4, align 8, !tbaa !4
  %7 = getelementptr inbounds nuw %struct.radix_obj_st, ptr %5, i32 0, i32 0
  store ptr %6, ptr %7, align 8, !tbaa !88
  %8 = load ptr, ptr %3, align 8, !tbaa !83
  %9 = getelementptr inbounds nuw %struct.radix_process_st, ptr %8, i32 0, i32 5
  %10 = load ptr, ptr %9, align 8, !tbaa !68
  %11 = call ptr @lh_RADIX_OBJ_retrieve(ptr noundef %10, ptr noundef %5)
  call void @llvm.lifetime.end.p0(i64 24, ptr %5) #9
  ret ptr %11
}

; Function Attrs: nounwind uwtable
define internal i32 @expect_slot_ssl(ptr noundef %0, i64 noundef %1, ptr noundef %2) #0 {
  %4 = alloca i32, align 4
  %5 = alloca ptr, align 8
  %6 = alloca i64, align 8
  %7 = alloca ptr, align 8
  store ptr %0, ptr %5, align 8, !tbaa !42
  store i64 %1, ptr %6, align 8, !tbaa !19
  store ptr %2, ptr %7, align 8, !tbaa !90
  %8 = load i64, ptr %6, align 8, !tbaa !19
  %9 = call i32 @test_size_t_lt(ptr noundef @.str.74, i32 noundef 670, ptr noundef @.str.93, ptr noundef @.str.86, i64 noundef %8, i64 noundef 8)
  %10 = icmp ne i32 %9, 0
  br i1 %10, label %11, label %20

11:                                               ; preds = %3
  %12 = call ptr @radix_get_thread()
  %13 = getelementptr inbounds nuw %struct.radix_thread_st, ptr %12, i32 0, i32 6
  %14 = load i64, ptr %6, align 8, !tbaa !19
  %15 = getelementptr inbounds nuw [8 x ptr], ptr %13, i64 0, i64 %14
  %16 = load ptr, ptr %15, align 8, !tbaa !49
  %17 = load ptr, ptr %7, align 8, !tbaa !90
  store ptr %16, ptr %17, align 8, !tbaa !49
  %18 = call i32 @test_ptr(ptr noundef @.str.74, i32 noundef 671, ptr noundef @.str.94, ptr noundef %16)
  %19 = icmp ne i32 %18, 0
  br i1 %19, label %21, label %20

20:                                               ; preds = %11, %3
  store i32 0, ptr %4, align 4
  br label %22

21:                                               ; preds = %11
  store i32 1, ptr %4, align 4
  br label %22

22:                                               ; preds = %21, %20
  %23 = load i32, ptr %4, align 4
  ret i32 %23
}

; Function Attrs: inlinehint nounwind uwtable
define internal i32 @TERP_stk_pop(ptr noundef %0, ptr noundef %1, i64 noundef %2) #5 {
  %4 = alloca i32, align 4
  %5 = alloca ptr, align 8
  %6 = alloca ptr, align 8
  %7 = alloca i64, align 8
  store ptr %0, ptr %5, align 8, !tbaa !75
  store ptr %1, ptr %6, align 8, !tbaa !41
  store i64 %2, ptr %7, align 8, !tbaa !19
  %8 = load ptr, ptr %5, align 8, !tbaa !75
  %9 = getelementptr inbounds nuw %struct.terp_st, ptr %8, i32 0, i32 6
  %10 = load ptr, ptr %9, align 8, !tbaa !26
  %11 = load ptr, ptr %5, align 8, !tbaa !75
  %12 = getelementptr inbounds nuw %struct.terp_st, ptr %11, i32 0, i32 5
  %13 = load ptr, ptr %12, align 8, !tbaa !32
  %14 = ptrtoint ptr %10 to i64
  %15 = ptrtoint ptr %13 to i64
  %16 = sub i64 %14, %15
  %17 = load i64, ptr %7, align 8, !tbaa !19
  %18 = call i32 @test_size_t_ge(ptr noundef @.str.42, i32 noundef 629, ptr noundef @.str.55, ptr noundef @.str.56, i64 noundef %16, i64 noundef %17)
  %19 = icmp ne i32 %18, 0
  br i1 %19, label %21, label %20

20:                                               ; preds = %3
  store i32 0, ptr %4, align 4
  br label %32

21:                                               ; preds = %3
  %22 = load ptr, ptr %6, align 8, !tbaa !41
  %23 = load ptr, ptr %5, align 8, !tbaa !75
  %24 = getelementptr inbounds nuw %struct.terp_st, ptr %23, i32 0, i32 5
  %25 = load ptr, ptr %24, align 8, !tbaa !32
  %26 = load i64, ptr %7, align 8, !tbaa !19
  call void @llvm.memcpy.p0.p0.i64(ptr align 1 %22, ptr align 1 %25, i64 %26, i1 false)
  %27 = load i64, ptr %7, align 8, !tbaa !19
  %28 = load ptr, ptr %5, align 8, !tbaa !75
  %29 = getelementptr inbounds nuw %struct.terp_st, ptr %28, i32 0, i32 5
  %30 = load ptr, ptr %29, align 8, !tbaa !32
  %31 = getelementptr inbounds nuw i8, ptr %30, i64 %27
  store ptr %31, ptr %29, align 8, !tbaa !32
  store i32 1, ptr %4, align 4
  br label %32

32:                                               ; preds = %21, %20
  %33 = load i32, ptr %4, align 4
  ret i32 %33
}

; Function Attrs: nounwind uwtable
define internal i32 @hf_new_stream(ptr noundef %0) #0 {
  %2 = alloca ptr, align 8
  %3 = alloca i32, align 4
  %4 = alloca ptr, align 8
  %5 = alloca ptr, align 8
  %6 = alloca ptr, align 8
  %7 = alloca i64, align 8
  %8 = alloca i64, align 8
  store ptr %0, ptr %2, align 8, !tbaa !42
  call void @llvm.lifetime.start.p0(i64 4, ptr %3) #9
  store i32 0, ptr %3, align 4, !tbaa !9
  call void @llvm.lifetime.start.p0(i64 8, ptr %4) #9
  call void @llvm.lifetime.start.p0(i64 8, ptr %5) #9
  call void @llvm.lifetime.start.p0(i64 8, ptr %6) #9
  call void @llvm.lifetime.start.p0(i64 8, ptr %7) #9
  call void @llvm.lifetime.start.p0(i64 8, ptr %8) #9
  br label %9

9:                                                ; preds = %1
  br label %10

10:                                               ; preds = %9
  call void @llvm.memset.p0.i64(ptr align 8 %8, i8 0, i64 8, i1 false)
  %11 = load ptr, ptr %2, align 8, !tbaa !42
  %12 = getelementptr inbounds nuw %struct.func_ctx_st, ptr %11, i32 0, i32 0
  %13 = load ptr, ptr %12, align 8, !tbaa !46
  %14 = call i32 @TERP_stk_pop(ptr noundef %13, ptr noundef %8, i64 noundef 8)
  %15 = icmp ne i32 %14, 0
  %16 = zext i1 %15 to i32
  %17 = call i32 @test_true(ptr noundef @.str.44, i32 noundef 289, ptr noundef @.str.172, i32 noundef %16)
  %18 = icmp ne i32 %17, 0
  br i1 %18, label %20, label %19

19:                                               ; preds = %10
  br label %106

20:                                               ; preds = %10
  br label %21

21:                                               ; preds = %20
  br label %22

22:                                               ; preds = %21
  br label %23

23:                                               ; preds = %22
  call void @llvm.memset.p0.i64(ptr align 8 %7, i8 0, i64 8, i1 false)
  %24 = load ptr, ptr %2, align 8, !tbaa !42
  %25 = getelementptr inbounds nuw %struct.func_ctx_st, ptr %24, i32 0, i32 0
  %26 = load ptr, ptr %25, align 8, !tbaa !46
  %27 = call i32 @TERP_stk_pop(ptr noundef %26, ptr noundef %7, i64 noundef 8)
  %28 = icmp ne i32 %27, 0
  %29 = zext i1 %28 to i32
  %30 = call i32 @test_true(ptr noundef @.str.44, i32 noundef 289, ptr noundef @.str.45, i32 noundef %29)
  %31 = icmp ne i32 %30, 0
  br i1 %31, label %33, label %32

32:                                               ; preds = %23
  br label %106

33:                                               ; preds = %23
  br label %34

34:                                               ; preds = %33
  br label %35

35:                                               ; preds = %34
  br label %36

36:                                               ; preds = %35
  br label %37

37:                                               ; preds = %36
  br label %38

38:                                               ; preds = %37
  call void @llvm.memset.p0.i64(ptr align 8 %4, i8 0, i64 8, i1 false)
  %39 = load ptr, ptr %2, align 8, !tbaa !42
  %40 = getelementptr inbounds nuw %struct.func_ctx_st, ptr %39, i32 0, i32 0
  %41 = load ptr, ptr %40, align 8, !tbaa !46
  %42 = call i32 @TERP_stk_pop(ptr noundef %41, ptr noundef %4, i64 noundef 8)
  %43 = icmp ne i32 %42, 0
  %44 = zext i1 %43 to i32
  %45 = call i32 @test_true(ptr noundef @.str.44, i32 noundef 290, ptr noundef @.str.173, i32 noundef %44)
  %46 = icmp ne i32 %45, 0
  br i1 %46, label %48, label %47

47:                                               ; preds = %38
  br label %106

48:                                               ; preds = %38
  br label %49

49:                                               ; preds = %48
  br label %50

50:                                               ; preds = %49
  br label %51

51:                                               ; preds = %50
  store ptr null, ptr %5, align 8, !tbaa !49
  %52 = load ptr, ptr %2, align 8, !tbaa !42
  %53 = call i32 @expect_slot_ssl(ptr noundef %52, i64 noundef 0, ptr noundef %5)
  %54 = icmp ne i32 %53, 0
  %55 = zext i1 %54 to i32
  %56 = call i32 @test_true(ptr noundef @.str.44, i32 noundef 291, ptr noundef @.str.174, i32 noundef %55)
  %57 = icmp ne i32 %56, 0
  br i1 %57, label %59, label %58

58:                                               ; preds = %51
  br label %106

59:                                               ; preds = %51
  br label %60

60:                                               ; preds = %59
  br label %61

61:                                               ; preds = %60
  %62 = load ptr, ptr %4, align 8, !tbaa !4
  %63 = call ptr @RADIX_PROCESS_get_obj(ptr noundef @radix_process, ptr noundef %62)
  %64 = call i32 @test_ptr_null(ptr noundef @.str.44, i32 noundef 293, ptr noundef @.str.175, ptr noundef %63)
  %65 = icmp ne i32 %64, 0
  br i1 %65, label %67, label %66

66:                                               ; preds = %61
  br label %106

67:                                               ; preds = %61
  %68 = load i64, ptr %8, align 8, !tbaa !19
  %69 = icmp ne i64 %68, 0
  br i1 %69, label %70, label %83

70:                                               ; preds = %67
  %71 = load ptr, ptr %5, align 8, !tbaa !49
  %72 = load i64, ptr %7, align 8, !tbaa !19
  %73 = call ptr @SSL_accept_stream(ptr noundef %71, i64 noundef %72)
  store ptr %73, ptr %6, align 8, !tbaa !49
  %74 = load ptr, ptr %6, align 8, !tbaa !49
  %75 = icmp eq ptr %74, null
  br i1 %75, label %76, label %82

76:                                               ; preds = %70
  br label %77

77:                                               ; preds = %76
  store i32 2, ptr %3, align 4, !tbaa !9
  %78 = load ptr, ptr %2, align 8, !tbaa !42
  %79 = getelementptr inbounds nuw %struct.func_ctx_st, ptr %78, i32 0, i32 1
  store i32 1, ptr %79, align 8, !tbaa !63
  br label %106

80:                                               ; No predecessors!
  br label %81

81:                                               ; preds = %80
  br label %82

82:                                               ; preds = %81, %70
  br label %87

83:                                               ; preds = %67
  %84 = load ptr, ptr %5, align 8, !tbaa !49
  %85 = load i64, ptr %7, align 8, !tbaa !19
  %86 = call ptr @SSL_new_stream(ptr noundef %84, i64 noundef %85)
  store ptr %86, ptr %6, align 8, !tbaa !49
  br label %87

87:                                               ; preds = %83, %82
  %88 = load ptr, ptr %6, align 8, !tbaa !49
  %89 = call i32 @test_ptr(ptr noundef @.str.44, i32 noundef 305, ptr noundef @.str.176, ptr noundef %88)
  %90 = icmp ne i32 %89, 0
  br i1 %90, label %92, label %91

91:                                               ; preds = %87
  br label %106

92:                                               ; preds = %87
  %93 = load ptr, ptr %6, align 8, !tbaa !49
  %94 = icmp ne ptr %93, null
  br i1 %94, label %95, label %105

95:                                               ; preds = %92
  %96 = load ptr, ptr %4, align 8, !tbaa !4
  %97 = load ptr, ptr %6, align 8, !tbaa !49
  %98 = call i32 @RADIX_PROCESS_set_ssl(ptr noundef @radix_process, ptr noundef %96, ptr noundef %97)
  %99 = icmp ne i32 %98, 0
  %100 = zext i1 %99 to i32
  %101 = call i32 @test_true(ptr noundef @.str.44, i32 noundef 311, ptr noundef @.str.177, i32 noundef %100)
  %102 = icmp ne i32 %101, 0
  br i1 %102, label %105, label %103

103:                                              ; preds = %95
  %104 = load ptr, ptr %6, align 8, !tbaa !49
  call void @SSL_free(ptr noundef %104)
  br label %106

105:                                              ; preds = %95, %92
  store i32 1, ptr %3, align 4, !tbaa !9
  br label %106

106:                                              ; preds = %105, %103, %91, %77, %66, %58, %47, %32, %19
  %107 = load i32, ptr %3, align 4, !tbaa !9
  call void @llvm.lifetime.end.p0(i64 8, ptr %8) #9
  call void @llvm.lifetime.end.p0(i64 8, ptr %7) #9
  call void @llvm.lifetime.end.p0(i64 8, ptr %6) #9
  call void @llvm.lifetime.end.p0(i64 8, ptr %5) #9
  call void @llvm.lifetime.end.p0(i64 8, ptr %4) #9
  call void @llvm.lifetime.end.p0(i64 4, ptr %3) #9
  ret i32 %107
}