; Function Attrs: nounwind uwtable
define internal range(i32 0, 3) i32 @hf_new_stream(ptr noundef captures(none) %0) #1 {
  %2 = alloca %struct.radix_obj_st, align 8
  %3 = load ptr, ptr %0, align 8, !tbaa !107
  %4 = getelementptr inbounds nuw i8, ptr %3, i64 112
  %5 = load ptr, ptr %4, align 8, !tbaa !100
  %6 = getelementptr inbounds nuw i8, ptr %3, i64 104
  %7 = load ptr, ptr %6, align 8, !tbaa !95
  %8 = ptrtoint ptr %5 to i64
  %9 = ptrtoint ptr %7 to i64
  %10 = sub i64 %8, %9
  %11 = tail call i32 @test_size_t_ge(ptr noundef nonnull @.str.42, i32 noundef 629, ptr noundef nonnull @.str.55, ptr noundef nonnull @.str.56, i64 noundef %10, i64 noundef 8) #12
  %.not.i = icmp eq i32 %11, 0
  br i1 %.not.i, label %TERP_stk_pop.exit, label %12

12:                                               ; preds = %1
  %13 = load ptr, ptr %6, align 8, !tbaa !95
  %14 = load i64, ptr %13, align 1
  %15 = getelementptr inbounds nuw i8, ptr %13, i64 8
  store ptr %15, ptr %6, align 8, !tbaa !95
  %16 = icmp eq i64 %14, 0
  br label %TERP_stk_pop.exit

TERP_stk_pop.exit:                                ; preds = %1, %12
  %.033 = phi i1 [ true, %1 ], [ %16, %12 ]
  %.0.i = phi i32 [ 0, %1 ], [ 1, %12 ]
  %17 = tail call i32 @test_true(ptr noundef nonnull @.str.44, i32 noundef 289, ptr noundef nonnull @.str.172, i32 noundef %.0.i) #12
  %.not = icmp eq i32 %17, 0
  br i1 %.not, label %76, label %18

18:                                               ; preds = %TERP_stk_pop.exit
  %19 = load ptr, ptr %0, align 8, !tbaa !107
  %20 = getelementptr inbounds nuw i8, ptr %19, i64 112
  %21 = load ptr, ptr %20, align 8, !tbaa !100
  %22 = getelementptr inbounds nuw i8, ptr %19, i64 104
  %23 = load ptr, ptr %22, align 8, !tbaa !95
  %24 = ptrtoint ptr %21 to i64
  %25 = ptrtoint ptr %23 to i64
  %26 = sub i64 %24, %25
  %27 = tail call i32 @test_size_t_ge(ptr noundef nonnull @.str.42, i32 noundef 629, ptr noundef nonnull @.str.55, ptr noundef nonnull @.str.56, i64 noundef %26, i64 noundef 8) #12
  %.not.i20 = icmp eq i32 %27, 0
  br i1 %.not.i20, label %TERP_stk_pop.exit22, label %28

28:                                               ; preds = %18
  %29 = load ptr, ptr %22, align 8, !tbaa !95
  %30 = load i64, ptr %29, align 1
  %31 = getelementptr inbounds nuw i8, ptr %29, i64 8
  store ptr %31, ptr %22, align 8, !tbaa !95
  br label %TERP_stk_pop.exit22

TERP_stk_pop.exit22:                              ; preds = %18, %28
  %.034 = phi i64 [ 0, %18 ], [ %30, %28 ]
  %.0.i21 = phi i32 [ 0, %18 ], [ 1, %28 ]
  %32 = tail call i32 @test_true(ptr noundef nonnull @.str.44, i32 noundef 289, ptr noundef nonnull @.str.45, i32 noundef %.0.i21) #12
  %.not12 = icmp eq i32 %32, 0
  br i1 %.not12, label %76, label %33

33:                                               ; preds = %TERP_stk_pop.exit22
  %34 = load ptr, ptr %0, align 8, !tbaa !107
  %35 = getelementptr inbounds nuw i8, ptr %34, i64 112
  %36 = load ptr, ptr %35, align 8, !tbaa !100
  %37 = getelementptr inbounds nuw i8, ptr %34, i64 104
  %38 = load ptr, ptr %37, align 8, !tbaa !95
  %39 = ptrtoint ptr %36 to i64
  %40 = ptrtoint ptr %38 to i64
  %41 = sub i64 %39, %40
  %42 = tail call i32 @test_size_t_ge(ptr noundef nonnull @.str.42, i32 noundef 629, ptr noundef nonnull @.str.55, ptr noundef nonnull @.str.56, i64 noundef %41, i64 noundef 8) #12
  %.not.i23 = icmp eq i32 %42, 0
  br i1 %.not.i23, label %TERP_stk_pop.exit25, label %43

43:                                               ; preds = %33
  %44 = load ptr, ptr %37, align 8, !tbaa !95
  %45 = load i64, ptr %44, align 1
  %46 = inttoptr i64 %45 to ptr
  %47 = getelementptr inbounds nuw i8, ptr %44, i64 8
  store ptr %47, ptr %37, align 8, !tbaa !95
  br label %TERP_stk_pop.exit25

TERP_stk_pop.exit25:                              ; preds = %33, %43
  %.036 = phi ptr [ null, %33 ], [ %46, %43 ]
  %.0.i24 = phi i32 [ 0, %33 ], [ 1, %43 ]
  %48 = tail call i32 @test_true(ptr noundef nonnull @.str.44, i32 noundef 290, ptr noundef nonnull @.str.173, i32 noundef %.0.i24) #12
  %.not13 = icmp eq i32 %48, 0
  br i1 %.not13, label %76, label %49

49:                                               ; preds = %TERP_stk_pop.exit25
  %50 = tail call i32 @test_size_t_lt(ptr noundef nonnull @.str.74, i32 noundef 670, ptr noundef nonnull @.str.93, ptr noundef nonnull @.str.86, i64 noundef 0, i64 noundef 8) #12
  %.not.i26 = icmp eq i32 %50, 0
  br i1 %.not.i26, label %expect_slot_ssl.exit, label %51

51:                                               ; preds = %49
  %52 = tail call ptr @CRYPTO_THREAD_get_local(ptr noundef nonnull @radix_thread) #12
  %53 = getelementptr inbounds nuw i8, ptr %52, i64 104
  %54 = load ptr, ptr %53, align 8, !tbaa !49
  %55 = tail call i32 @test_ptr(ptr noundef nonnull @.str.74, i32 noundef 671, ptr noundef nonnull @.str.94, ptr noundef %54) #12
  %.not3.i = icmp ne i32 %55, 0
  %spec.select.i = zext i1 %.not3.i to i32
  br label %expect_slot_ssl.exit

expect_slot_ssl.exit:                             ; preds = %49, %51
  %.035 = phi ptr [ null, %49 ], [ %54, %51 ]
  %.0.i27 = phi i32 [ 0, %49 ], [ %spec.select.i, %51 ]
  %56 = tail call i32 @test_true(ptr noundef nonnull @.str.44, i32 noundef 291, ptr noundef nonnull @.str.174, i32 noundef %.0.i27) #12
  %.not14 = icmp eq i32 %56, 0
  br i1 %.not14, label %76, label %57

57:                                               ; preds = %expect_slot_ssl.exit
  call void @llvm.lifetime.start.p0(i64 24, ptr nonnull %2) #12
  store ptr %.036, ptr %2, align 8, !tbaa !46
  %58 = load ptr, ptr getelementptr inbounds nuw (i8, ptr @radix_process, i64 40), align 8, !tbaa !18
  %59 = call ptr @OPENSSL_LH_retrieve(ptr noundef %58, ptr noundef nonnull %2) #12
  call void @llvm.lifetime.end.p0(i64 24, ptr nonnull %2) #12
  %60 = call i32 @test_ptr_null(ptr noundef nonnull @.str.44, i32 noundef 293, ptr noundef nonnull @.str.175, ptr noundef %59) #12
  %.not15 = icmp eq i32 %60, 0
  br i1 %.not15, label %76, label %61

61:                                               ; preds = %57
  br i1 %.033, label %67, label %62

62:                                               ; preds = %61
  %63 = call ptr @SSL_accept_stream(ptr noundef %.035, i64 noundef %.034) #12
  %64 = icmp eq ptr %63, null
  br i1 %64, label %65, label %69

65:                                               ; preds = %62
  %66 = getelementptr inbounds nuw i8, ptr %0, i64 8
  store i32 1, ptr %66, align 8, !tbaa !110
  br label %76

67:                                               ; preds = %61
  %68 = call ptr @SSL_new_stream(ptr noundef %.035, i64 noundef %.034) #12
  br label %69

69:                                               ; preds = %62, %67
  %.0 = phi ptr [ %63, %62 ], [ %68, %67 ]
  %70 = call i32 @test_ptr(ptr noundef nonnull @.str.44, i32 noundef 305, ptr noundef nonnull @.str.176, ptr noundef %.0) #12
  %.not17 = icmp eq i32 %70, 0
  br i1 %.not17, label %76, label %71

71:                                               ; preds = %69
  %.not18 = icmp eq ptr %.0, null
  br i1 %.not18, label %76, label %72

72:                                               ; preds = %71
  %73 = call fastcc i32 @RADIX_PROCESS_set_ssl(ptr noundef %.036, ptr noundef nonnull %.0)
  %74 = call i32 @test_true(ptr noundef nonnull @.str.44, i32 noundef 311, ptr noundef nonnull @.str.177, i32 noundef %73) #12
  %.not19 = icmp eq i32 %74, 0
  br i1 %.not19, label %75, label %76

75:                                               ; preds = %72
  call void @SSL_free(ptr noundef nonnull %.0) #12
  br label %76

76:                                               ; preds = %71, %72, %69, %57, %expect_slot_ssl.exit, %TERP_stk_pop.exit25, %TERP_stk_pop.exit22, %TERP_stk_pop.exit, %75, %65
  %.010 = phi i32 [ 2, %65 ], [ 0, %75 ], [ 0, %69 ], [ 0, %57 ], [ 0, %expect_slot_ssl.exit ], [ 0, %TERP_stk_pop.exit25 ], [ 0, %TERP_stk_pop.exit22 ], [ 0, %TERP_stk_pop.exit ], [ 1, %72 ], [ 1, %71 ]
  ret i32 %.010
}